target datalayout = "e-m:e-p270:32:32-p271:32:32-p272:64:64-i64:64-i128:128-f80:128-n8:16:32:64-S128"
target triple = "x86_64-pc-linux-gnu"

%struct.pseudo_merge_map = type { ptr, i64, i64, ptr, ptr, i64 }
%struct.pseudo_merge = type { ptr, ptr, i64, i64, i8 }

; Function Attrs: nounwind uwtable
define dso_local void @free_pseudo_merge_map(ptr noundef %0) #0 {
  %2 = alloca ptr, align 8
  %3 = alloca i32, align 4
  store ptr %0, ptr %2, align 8, !tbaa !126
  call void @llvm.lifetime.start.p0(i64 4, ptr %3) #10
  store i32 0, ptr %3, align 4, !tbaa !59
  br label %4

4:                                                ; preds = %28, %1
  %5 = load i32, ptr %3, align 4, !tbaa !59
  %6 = zext i32 %5 to i64
  %7 = load ptr, ptr %2, align 8, !tbaa !126
  %8 = getelementptr inbounds nuw %struct.pseudo_merge_map, ptr %7, i32 0, i32 1
  %9 = load i64, ptr %8, align 8, !tbaa !128
  %10 = icmp ult i64 %6, %9
  br i1 %10, label %11, label %31

11:                                               ; preds = %4
  %12 = load ptr, ptr %2, align 8, !tbaa !126
  %13 = getelementptr inbounds nuw %struct.pseudo_merge_map, ptr %12, i32 0, i32 0
  %14 = load ptr, ptr %13, align 8, !tbaa !131
  %15 = load i32, ptr %3, align 4, !tbaa !59
  %16 = zext i32 %15 to i64
  %17 = getelementptr inbounds nuw %struct.pseudo_merge, ptr %14, i64 %16
  %18 = getelementptr inbounds nuw %struct.pseudo_merge, ptr %17, i32 0, i32 0
  %19 = load ptr, ptr %18, align 8, !tbaa !132
  call void @ewah_pool_free(ptr noundef %19)
  %20 = load ptr, ptr %2, align 8, !tbaa !126
  %21 = getelementptr inbounds nuw %struct.pseudo_merge_map, ptr %20, i32 0, i32 0
  %22 = load ptr, ptr %21, align 8, !tbaa !131
  %23 = load i32, ptr %3, align 4, !tbaa !59
  %24 = zext i32 %23 to i64
  %25 = getelementptr inbounds nuw %struct.pseudo_merge, ptr %22, i64 %24
  %26 = getelementptr inbounds nuw %struct.pseudo_merge, ptr %25, i32 0, i32 1
  %27 = load ptr, ptr %26, align 8, !tbaa !134
  call void @ewah_pool_free(ptr noundef %27)
  br label %28

28:                                               ; preds = %11
  %29 = load i32, ptr %3, align 4, !tbaa !59
  %30 = add i32 %29, 1
  store i32 %30, ptr %3, align 4, !tbaa !59
  br label %4, !llvm.loop !135

31:                                               ; preds = %4
  %32 = load ptr, ptr %2, align 8, !tbaa !126
  %33 = getelementptr inbounds nuw %struct.pseudo_merge_map, ptr %32, i32 0, i32 0
  %34 = load ptr, ptr %33, align 8, !tbaa !131
  call void @free(ptr noundef %34) #10
  call void @llvm.lifetime.end.p0(i64 4, ptr %3) #10
  ret void
}