; Function Attrs: nounwind uwtable
define dso_local void @free_pseudo_merge_map(ptr noundef readonly captures(none) %0) local_unnamed_addr #0 {
  %2 = getelementptr inbounds nuw i8, ptr %0, i64 8
  %3 = load i64, ptr %2, align 8, !tbaa !102
  %.not = icmp eq i64 %3, 0
  br i1 %.not, label %._crit_edge, label %.lr.ph

.lr.ph:                                           ; preds = %1, %.lr.ph
  %4 = phi i64 [ %12, %.lr.ph ], [ 0, %1 ]
  %.08 = phi i32 [ %11, %.lr.ph ], [ 0, %1 ]
  %5 = load ptr, ptr %0, align 8, !tbaa !105
  %6 = getelementptr inbounds nuw %struct.pseudo_merge, ptr %5, i64 %4
  %7 = load ptr, ptr %6, align 8, !tbaa !106
  tail call void @ewah_pool_free(ptr noundef %7) #15
  %8 = load ptr, ptr %0, align 8, !tbaa !105
  %9 = getelementptr inbounds nuw %struct.pseudo_merge, ptr %8, i64 %4, i32 1
  %10 = load ptr, ptr %9, align 8, !tbaa !108
  tail call void @ewah_pool_free(ptr noundef %10) #15
  %11 = add i32 %.08, 1
  %12 = zext i32 %11 to i64
  %13 = load i64, ptr %2, align 8, !tbaa !102
  %14 = icmp ugt i64 %13, %12
  br i1 %14, label %.lr.ph, label %._crit_edge, !llvm.loop !109

._crit_edge:                                      ; preds = %.lr.ph, %1
  %15 = load ptr, ptr %0, align 8, !tbaa !105
  tail call void @free(ptr noundef %15) #15
  ret void
}